target datalayout = "e-m:e-p270:32:32-p271:32:32-p272:64:64-i64:64-i128:128-f80:128-n8:16:32:64-S128"
target triple = "x86_64-pc-linux-gnu"

%struct.rb_data_type_struct = type { ptr, %struct.anon, ptr, ptr, i64 }
%struct.anon = type { ptr, ptr, ptr, ptr, [1 x ptr] }

@eTimestampError = internal global i64 0, align 8
@rb_eRuntimeError = external global i64, align 8
@ossl_ts_req_type = internal constant %struct.rb_data_type_struct { ptr @.str.64, %struct.anon { ptr null, ptr @ossl_ts_req_free, ptr null, ptr null, [1 x ptr] zeroinitializer }, ptr null, ptr null, i64 33 }, align 8
@.str.57 = private unnamed_addr constant [27 x i8] c"TS_REQ wasn't initialized.\00", align 1

; Function Attrs: nounwind sspstrong uwtable
define internal i64 @ossl_ts_req_set_nonce(i64 noundef %0, i64 noundef %1) #0 {
  %3 = alloca i64, align 8
  %4 = alloca i64, align 8
  %5 = alloca ptr, align 8
  %6 = alloca ptr, align 8
  %7 = alloca i32, align 4
  store i64 %0, ptr %3, align 8, !tbaa !6
  store i64 %1, ptr %4, align 8, !tbaa !6
  call void @llvm.lifetime.start.p0(i64 8, ptr %5) #16
  call void @llvm.lifetime.start.p0(i64 8, ptr %6) #16
  call void @llvm.lifetime.start.p0(i64 4, ptr %7) #16
  br label %8

8:                                                ; preds = %2
  %9 = load i64, ptr %3, align 8, !tbaa !6
  %10 = call ptr @rb_check_typeddata(i64 noundef %9, ptr noundef @ossl_ts_req_type)
  store ptr %10, ptr %5, align 8, !tbaa !51
  %11 = load ptr, ptr %5, align 8, !tbaa !51
  %12 = icmp ne ptr %11, null
  br i1 %12, label %15, label %13

13:                                               ; preds = %8
  %14 = load i64, ptr @rb_eRuntimeError, align 8, !tbaa !6
  call void (i64, ptr, ...) @ossl_raise(i64 noundef %14, ptr noundef @.str.57) #17
  unreachable

15:                                               ; preds = %8
  br label %16

16:                                               ; preds = %15
  br label %17

17:                                               ; preds = %16
  %18 = load i64, ptr %4, align 8, !tbaa !6
  %19 = call ptr @num_to_asn1integer(i64 noundef %18, ptr noundef null)
  store ptr %19, ptr %6, align 8, !tbaa !25
  %20 = load ptr, ptr %5, align 8, !tbaa !51
  %21 = load ptr, ptr %6, align 8, !tbaa !25
  %22 = call i32 @TS_REQ_set_nonce(ptr noundef %20, ptr noundef %21)
  store i32 %22, ptr %7, align 4, !tbaa !29
  %23 = load ptr, ptr %6, align 8, !tbaa !25
  call void @ASN1_INTEGER_free(ptr noundef %23)
  %24 = load i32, ptr %7, align 4, !tbaa !29
  %25 = icmp ne i32 %24, 0
  br i1 %25, label %28, label %26

26:                                               ; preds = %17
  %27 = load i64, ptr @eTimestampError, align 8, !tbaa !6
  call void (i64, ptr, ...) @ossl_raise(i64 noundef %27, ptr noundef null) #17
  unreachable

28:                                               ; preds = %17
  %29 = load i64, ptr %4, align 8, !tbaa !6
  call void @llvm.lifetime.end.p0(i64 4, ptr %7) #16
  call void @llvm.lifetime.end.p0(i64 8, ptr %6) #16
  call void @llvm.lifetime.end.p0(i64 8, ptr %5) #16
  ret i64 %29
}