; Function Attrs: nounwind sspstrong uwtable
define internal noundef i64 @ossl_ts_req_set_nonce(i64 noundef %0, i64 noundef returned %1) #0 {
  %3 = tail call ptr @rb_check_typeddata(i64 noundef %0, ptr noundef nonnull @ossl_ts_req_type) #7
  %.not = icmp eq ptr %3, null
  br i1 %.not, label %4, label %6

4:                                                ; preds = %2
  %5 = load i64, ptr @rb_eRuntimeError, align 8, !tbaa !6
  tail call void (i64, ptr, ...) @ossl_raise(i64 noundef %5, ptr noundef nonnull @.str.57) #8
  unreachable

6:                                                ; preds = %2
  %7 = tail call ptr @num_to_asn1integer(i64 noundef %1, ptr noundef null) #7
  %8 = tail call i32 @TS_REQ_set_nonce(ptr noundef nonnull %3, ptr noundef %7) #7
  tail call void @ASN1_INTEGER_free(ptr noundef %7) #7
  %.not7 = icmp eq i32 %8, 0
  br i1 %.not7, label %9, label %11

9:                                                ; preds = %6
  %10 = load i64, ptr @eTimestampError, align 8, !tbaa !6
  tail call void (i64, ptr, ...) @ossl_raise(i64 noundef %10, ptr noundef null) #8
  unreachable

11:                                               ; preds = %6
  ret i64 %1
}